; Function Attrs: mustprogress nounwind uwtable
define hidden noundef ptr @_ZNK15fieldDescriptor20string_initial_valueEP10JavaThread(ptr nocapture noundef nonnull readonly align 8 dereferenceable(48) %0, ptr noundef %1) local_unnamed_addr #1 align 2 {
  %3 = getelementptr inbounds i8, ptr %0, i64 32
  %4 = load ptr, ptr %3, align 8
  %.sroa.1.0..sroa_idx.i = getelementptr inbounds i8, ptr %0, i64 20
  %.sroa.1.0.copyload.i = load i16, ptr %.sroa.1.0..sroa_idx.i, align 4
  %5 = zext i16 %.sroa.1.0.copyload.i to i32
  %6 = tail call noundef ptr @_ZN12ConstantPool18uncached_string_atEiP10JavaThread(ptr noundef nonnull align 8 dereferenceable(68) %4, i32 noundef %5, ptr noundef %1) #9
  ret ptr %6
}